
ledDimmerBootLoader.elf:     file format elf32-avr

Sections:
Idx Name          Size      VMA       LMA       File off  Algn
  0 .data         0000001c  00800100  0001f92c  000009c0  2**0
                  CONTENTS, ALLOC, LOAD, DATA
  1 .text         0000092c  0001f000  0001f000  00000094  2**1
                  CONTENTS, ALLOC, LOAD, READONLY, CODE
  2 .bss          000001c6  0080011c  0080011c  000009dc  2**0
                  ALLOC
  3 .stab         00000738  00000000  00000000  000009dc  2**2
                  CONTENTS, READONLY, DEBUGGING
  4 .stabstr      00000082  00000000  00000000  00001114  2**0
                  CONTENTS, READONLY, DEBUGGING

Disassembly of section .text:

0001f000 <__vectors>:
   1f000:	0c 94 46 f8 	jmp	0x1f08c	; 0x1f08c <__ctors_end>
   1f004:	0c 94 65 f8 	jmp	0x1f0ca	; 0x1f0ca <__bad_interrupt>
   1f008:	0c 94 65 f8 	jmp	0x1f0ca	; 0x1f0ca <__bad_interrupt>
   1f00c:	0c 94 65 f8 	jmp	0x1f0ca	; 0x1f0ca <__bad_interrupt>
   1f010:	0c 94 65 f8 	jmp	0x1f0ca	; 0x1f0ca <__bad_interrupt>
   1f014:	0c 94 65 f8 	jmp	0x1f0ca	; 0x1f0ca <__bad_interrupt>
   1f018:	0c 94 65 f8 	jmp	0x1f0ca	; 0x1f0ca <__bad_interrupt>
   1f01c:	0c 94 65 f8 	jmp	0x1f0ca	; 0x1f0ca <__bad_interrupt>
   1f020:	0c 94 65 f8 	jmp	0x1f0ca	; 0x1f0ca <__bad_interrupt>
   1f024:	0c 94 65 f8 	jmp	0x1f0ca	; 0x1f0ca <__bad_interrupt>
   1f028:	0c 94 65 f8 	jmp	0x1f0ca	; 0x1f0ca <__bad_interrupt>
   1f02c:	0c 94 65 f8 	jmp	0x1f0ca	; 0x1f0ca <__bad_interrupt>
   1f030:	0c 94 65 f8 	jmp	0x1f0ca	; 0x1f0ca <__bad_interrupt>
   1f034:	0c 94 65 f8 	jmp	0x1f0ca	; 0x1f0ca <__bad_interrupt>
   1f038:	0c 94 65 f8 	jmp	0x1f0ca	; 0x1f0ca <__bad_interrupt>
   1f03c:	0c 94 65 f8 	jmp	0x1f0ca	; 0x1f0ca <__bad_interrupt>
   1f040:	0c 94 65 f8 	jmp	0x1f0ca	; 0x1f0ca <__bad_interrupt>
   1f044:	0c 94 65 f8 	jmp	0x1f0ca	; 0x1f0ca <__bad_interrupt>
   1f048:	0c 94 65 f8 	jmp	0x1f0ca	; 0x1f0ca <__bad_interrupt>
   1f04c:	0c 94 65 f8 	jmp	0x1f0ca	; 0x1f0ca <__bad_interrupt>
   1f050:	0c 94 67 f8 	jmp	0x1f0ce	; 0x1f0ce <__vector_20>
   1f054:	0c 94 99 f8 	jmp	0x1f132	; 0x1f132 <__vector_21>
   1f058:	0c 94 65 f8 	jmp	0x1f0ca	; 0x1f0ca <__bad_interrupt>
   1f05c:	0c 94 65 f8 	jmp	0x1f0ca	; 0x1f0ca <__bad_interrupt>
   1f060:	0c 94 65 f8 	jmp	0x1f0ca	; 0x1f0ca <__bad_interrupt>
   1f064:	0c 94 65 f8 	jmp	0x1f0ca	; 0x1f0ca <__bad_interrupt>
   1f068:	0c 94 65 f8 	jmp	0x1f0ca	; 0x1f0ca <__bad_interrupt>
   1f06c:	0c 94 65 f8 	jmp	0x1f0ca	; 0x1f0ca <__bad_interrupt>
   1f070:	0c 94 31 f9 	jmp	0x1f262	; 0x1f262 <__vector_28>
   1f074:	0c 94 63 f9 	jmp	0x1f2c6	; 0x1f2c6 <__vector_29>
   1f078:	0c 94 65 f8 	jmp	0x1f0ca	; 0x1f0ca <__bad_interrupt>
   1f07c:	0c 94 65 f8 	jmp	0x1f0ca	; 0x1f0ca <__bad_interrupt>
   1f080:	0c 94 65 f8 	jmp	0x1f0ca	; 0x1f0ca <__bad_interrupt>
   1f084:	0c 94 65 f8 	jmp	0x1f0ca	; 0x1f0ca <__bad_interrupt>
   1f088:	0c 94 65 f8 	jmp	0x1f0ca	; 0x1f0ca <__bad_interrupt>

0001f08c <__ctors_end>:
   1f08c:	11 24       	eor	r1, r1
   1f08e:	1f be       	out	0x3f, r1	; 63
   1f090:	cf ef       	ldi	r28, 0xFF	; 255
   1f092:	d0 e4       	ldi	r29, 0x40	; 64
   1f094:	de bf       	out	0x3e, r29	; 62
   1f096:	cd bf       	out	0x3d, r28	; 61

0001f098 <__do_copy_data>:
   1f098:	11 e0       	ldi	r17, 0x01	; 1
   1f09a:	a0 e0       	ldi	r26, 0x00	; 0
   1f09c:	b1 e0       	ldi	r27, 0x01	; 1
   1f09e:	ec e2       	ldi	r30, 0x2C	; 44
   1f0a0:	f9 ef       	ldi	r31, 0xF9	; 249
   1f0a2:	01 e0       	ldi	r16, 0x01	; 1
   1f0a4:	0b bf       	out	0x3b, r16	; 59
   1f0a6:	02 c0       	rjmp	.+4      	; 0x1f0ac <__do_copy_data+0x14>
   1f0a8:	07 90       	elpm	r0, Z+
   1f0aa:	0d 92       	st	X+, r0
   1f0ac:	ac 31       	cpi	r26, 0x1C	; 28
   1f0ae:	b1 07       	cpc	r27, r17
   1f0b0:	d9 f7       	brne	.-10     	; 0x1f0a8 <__do_copy_data+0x10>

0001f0b2 <__do_clear_bss>:
   1f0b2:	12 e0       	ldi	r17, 0x02	; 2
   1f0b4:	ac e1       	ldi	r26, 0x1C	; 28
   1f0b6:	b1 e0       	ldi	r27, 0x01	; 1
   1f0b8:	01 c0       	rjmp	.+2      	; 0x1f0bc <.do_clear_bss_start>

0001f0ba <.do_clear_bss_loop>:
   1f0ba:	1d 92       	st	X+, r1

0001f0bc <.do_clear_bss_start>:
   1f0bc:	a2 3e       	cpi	r26, 0xE2	; 226
   1f0be:	b1 07       	cpc	r27, r17
   1f0c0:	e1 f7       	brne	.-8      	; 0x1f0ba <.do_clear_bss_loop>
   1f0c2:	0e 94 23 fc 	call	0x1f846	; 0x1f846 <main>
   1f0c6:	0c 94 94 fc 	jmp	0x1f928	; 0x1f928 <_exit>

0001f0ca <__bad_interrupt>:
   1f0ca:	0c 94 00 f8 	jmp	0x1f000	; 0x1f000 <__vectors>

0001f0ce <__vector_20>:
   1f0ce:	1f 92       	push	r1
   1f0d0:	0f 92       	push	r0
   1f0d2:	0f b6       	in	r0, 0x3f	; 63
   1f0d4:	0f 92       	push	r0
   1f0d6:	0b b6       	in	r0, 0x3b	; 59
   1f0d8:	0f 92       	push	r0
   1f0da:	11 24       	eor	r1, r1
   1f0dc:	2f 93       	push	r18
   1f0de:	8f 93       	push	r24
   1f0e0:	9f 93       	push	r25
   1f0e2:	ef 93       	push	r30
   1f0e4:	ff 93       	push	r31
   1f0e6:	90 91 c0 00 	lds	r25, 0x00C0
   1f0ea:	80 91 c6 00 	lds	r24, 0x00C6
   1f0ee:	e0 91 84 01 	lds	r30, 0x0184
   1f0f2:	ef 5f       	subi	r30, 0xFF	; 255
   1f0f4:	ef 71       	andi	r30, 0x1F	; 31
   1f0f6:	20 91 85 01 	lds	r18, 0x0185
   1f0fa:	e2 17       	cp	r30, r18
   1f0fc:	41 f0       	breq	.+16     	; 0x1f10e <__vector_20+0x40>
   1f0fe:	98 71       	andi	r25, 0x18	; 24
   1f100:	e0 93 84 01 	sts	0x0184, r30
   1f104:	f0 e0       	ldi	r31, 0x00	; 0
   1f106:	ea 57       	subi	r30, 0x7A	; 122
   1f108:	fe 4f       	sbci	r31, 0xFE	; 254
   1f10a:	80 83       	st	Z, r24
   1f10c:	01 c0       	rjmp	.+2      	; 0x1f110 <__vector_20+0x42>
   1f10e:	92 e0       	ldi	r25, 0x02	; 2
   1f110:	80 91 61 01 	lds	r24, 0x0161
   1f114:	89 2b       	or	r24, r25
   1f116:	80 93 61 01 	sts	0x0161, r24
   1f11a:	ff 91       	pop	r31
   1f11c:	ef 91       	pop	r30
   1f11e:	9f 91       	pop	r25
   1f120:	8f 91       	pop	r24
   1f122:	2f 91       	pop	r18
   1f124:	0f 90       	pop	r0
   1f126:	0b be       	out	0x3b, r0	; 59
   1f128:	0f 90       	pop	r0
   1f12a:	0f be       	out	0x3f, r0	; 63
   1f12c:	0f 90       	pop	r0
   1f12e:	1f 90       	pop	r1
   1f130:	18 95       	reti

0001f132 <__vector_21>:
   1f132:	1f 92       	push	r1
   1f134:	0f 92       	push	r0
   1f136:	0f b6       	in	r0, 0x3f	; 63
   1f138:	0f 92       	push	r0
   1f13a:	0b b6       	in	r0, 0x3b	; 59
   1f13c:	0f 92       	push	r0
   1f13e:	11 24       	eor	r1, r1
   1f140:	8f 93       	push	r24
   1f142:	9f 93       	push	r25
   1f144:	ef 93       	push	r30
   1f146:	ff 93       	push	r31
   1f148:	90 91 62 01 	lds	r25, 0x0162
   1f14c:	80 91 63 01 	lds	r24, 0x0163
   1f150:	98 17       	cp	r25, r24
   1f152:	69 f0       	breq	.+26     	; 0x1f16e <__vector_21+0x3c>
   1f154:	e0 91 63 01 	lds	r30, 0x0163
   1f158:	ef 5f       	subi	r30, 0xFF	; 255
   1f15a:	ef 71       	andi	r30, 0x1F	; 31
   1f15c:	e0 93 63 01 	sts	0x0163, r30
   1f160:	f0 e0       	ldi	r31, 0x00	; 0
   1f162:	ec 59       	subi	r30, 0x9C	; 156
   1f164:	fe 4f       	sbci	r31, 0xFE	; 254
   1f166:	80 81       	ld	r24, Z
   1f168:	80 93 c6 00 	sts	0x00C6, r24
   1f16c:	05 c0       	rjmp	.+10     	; 0x1f178 <__vector_21+0x46>
   1f16e:	80 91 c1 00 	lds	r24, 0x00C1
   1f172:	8f 7d       	andi	r24, 0xDF	; 223
   1f174:	80 93 c1 00 	sts	0x00C1, r24
   1f178:	ff 91       	pop	r31
   1f17a:	ef 91       	pop	r30
   1f17c:	9f 91       	pop	r25
   1f17e:	8f 91       	pop	r24
   1f180:	0f 90       	pop	r0
   1f182:	0b be       	out	0x3b, r0	; 59
   1f184:	0f 90       	pop	r0
   1f186:	0f be       	out	0x3f, r0	; 63
   1f188:	0f 90       	pop	r0
   1f18a:	1f 90       	pop	r1
   1f18c:	18 95       	reti

0001f18e <uart_init>:
   1f18e:	10 92 62 01 	sts	0x0162, r1
   1f192:	10 92 63 01 	sts	0x0163, r1
   1f196:	10 92 84 01 	sts	0x0184, r1
   1f19a:	10 92 85 01 	sts	0x0185, r1
   1f19e:	97 ff       	sbrs	r25, 7
   1f1a0:	04 c0       	rjmp	.+8      	; 0x1f1aa <uart_init+0x1c>
   1f1a2:	22 e0       	ldi	r18, 0x02	; 2
   1f1a4:	20 93 c0 00 	sts	0x00C0, r18
   1f1a8:	9f 77       	andi	r25, 0x7F	; 127
   1f1aa:	90 93 c5 00 	sts	0x00C5, r25
   1f1ae:	80 93 c4 00 	sts	0x00C4, r24
   1f1b2:	88 e9       	ldi	r24, 0x98	; 152
   1f1b4:	80 93 c1 00 	sts	0x00C1, r24
   1f1b8:	86 e0       	ldi	r24, 0x06	; 6
   1f1ba:	80 93 c2 00 	sts	0x00C2, r24
   1f1be:	08 95       	ret

0001f1c0 <uart_getc>:
   1f1c0:	90 91 84 01 	lds	r25, 0x0184
   1f1c4:	80 91 85 01 	lds	r24, 0x0185
   1f1c8:	98 17       	cp	r25, r24
   1f1ca:	81 f0       	breq	.+32     	; 0x1f1ec <uart_getc+0x2c>
   1f1cc:	e0 91 85 01 	lds	r30, 0x0185
   1f1d0:	ef 5f       	subi	r30, 0xFF	; 255
   1f1d2:	ef 71       	andi	r30, 0x1F	; 31
   1f1d4:	e0 93 85 01 	sts	0x0185, r30
   1f1d8:	f0 e0       	ldi	r31, 0x00	; 0
   1f1da:	ea 57       	subi	r30, 0x7A	; 122
   1f1dc:	fe 4f       	sbci	r31, 0xFE	; 254
   1f1de:	20 81       	ld	r18, Z
   1f1e0:	80 91 61 01 	lds	r24, 0x0161
   1f1e4:	10 92 61 01 	sts	0x0161, r1
   1f1e8:	30 e0       	ldi	r19, 0x00	; 0
   1f1ea:	02 c0       	rjmp	.+4      	; 0x1f1f0 <uart_getc+0x30>
   1f1ec:	20 e0       	ldi	r18, 0x00	; 0
   1f1ee:	31 e0       	ldi	r19, 0x01	; 1
   1f1f0:	c9 01       	movw	r24, r18
   1f1f2:	08 95       	ret

0001f1f4 <uart_putc>:
   1f1f4:	90 91 62 01 	lds	r25, 0x0162
   1f1f8:	9f 5f       	subi	r25, 0xFF	; 255
   1f1fa:	9f 71       	andi	r25, 0x1F	; 31
   1f1fc:	20 91 63 01 	lds	r18, 0x0163
   1f200:	92 17       	cp	r25, r18
   1f202:	e1 f3       	breq	.-8      	; 0x1f1fc <uart_putc+0x8>
   1f204:	e9 2f       	mov	r30, r25
   1f206:	f0 e0       	ldi	r31, 0x00	; 0
   1f208:	ec 59       	subi	r30, 0x9C	; 156
   1f20a:	fe 4f       	sbci	r31, 0xFE	; 254
   1f20c:	80 83       	st	Z, r24
   1f20e:	90 93 62 01 	sts	0x0162, r25
   1f212:	80 91 c1 00 	lds	r24, 0x00C1
   1f216:	80 62       	ori	r24, 0x20	; 32
   1f218:	80 93 c1 00 	sts	0x00C1, r24
   1f21c:	08 95       	ret

0001f21e <uart_puts>:
   1f21e:	ef 92       	push	r14
   1f220:	ff 92       	push	r15
   1f222:	cf 93       	push	r28
   1f224:	df 93       	push	r29
   1f226:	e8 2e       	mov	r14, r24
   1f228:	e7 01       	movw	r28, r14
   1f22a:	7e 01       	movw	r14, r28
   1f22c:	f9 2e       	mov	r15, r25
   1f22e:	e7 01       	movw	r28, r14
   1f230:	02 c0       	rjmp	.+4      	; 0x1f236 <uart_puts+0x18>
   1f232:	0e 94 fa f8 	call	0x1f1f4	; 0x1f1f4 <uart_putc>
   1f236:	89 91       	ld	r24, Y+
   1f238:	88 23       	and	r24, r24
   1f23a:	d9 f7       	brne	.-10     	; 0x1f232 <uart_puts+0x14>
   1f23c:	df 91       	pop	r29
   1f23e:	cf 91       	pop	r28
   1f240:	ff 90       	pop	r15
   1f242:	ef 90       	pop	r14
   1f244:	08 95       	ret

0001f246 <uart_puts_p>:
   1f246:	cf 93       	push	r28
   1f248:	df 93       	push	r29
   1f24a:	ec 01       	movw	r28, r24
   1f24c:	02 c0       	rjmp	.+4      	; 0x1f252 <uart_puts_p+0xc>
   1f24e:	0e 94 fa f8 	call	0x1f1f4	; 0x1f1f4 <uart_putc>
   1f252:	fe 01       	movw	r30, r28
   1f254:	21 96       	adiw	r28, 0x01	; 1
   1f256:	84 91       	lpm	r24, Z+
   1f258:	88 23       	and	r24, r24
   1f25a:	c9 f7       	brne	.-14     	; 0x1f24e <uart_puts_p+0x8>
   1f25c:	df 91       	pop	r29
   1f25e:	cf 91       	pop	r28
   1f260:	08 95       	ret

0001f262 <__vector_28>:
   1f262:	1f 92       	push	r1
   1f264:	0f 92       	push	r0
   1f266:	0f b6       	in	r0, 0x3f	; 63
   1f268:	0f 92       	push	r0
   1f26a:	0b b6       	in	r0, 0x3b	; 59
   1f26c:	0f 92       	push	r0
   1f26e:	11 24       	eor	r1, r1
   1f270:	2f 93       	push	r18
   1f272:	8f 93       	push	r24
   1f274:	9f 93       	push	r25
   1f276:	ef 93       	push	r30
   1f278:	ff 93       	push	r31
   1f27a:	90 91 c8 00 	lds	r25, 0x00C8
   1f27e:	80 91 ce 00 	lds	r24, 0x00CE
   1f282:	e0 91 3e 01 	lds	r30, 0x013E
   1f286:	ef 5f       	subi	r30, 0xFF	; 255
   1f288:	ef 71       	andi	r30, 0x1F	; 31
   1f28a:	20 91 3f 01 	lds	r18, 0x013F
   1f28e:	e2 17       	cp	r30, r18
   1f290:	41 f0       	breq	.+16     	; 0x1f2a2 <__vector_28+0x40>
   1f292:	98 71       	andi	r25, 0x18	; 24
   1f294:	e0 93 3e 01 	sts	0x013E, r30
   1f298:	f0 e0       	ldi	r31, 0x00	; 0
   1f29a:	e0 5c       	subi	r30, 0xC0	; 192
   1f29c:	fe 4f       	sbci	r31, 0xFE	; 254
   1f29e:	80 83       	st	Z, r24
   1f2a0:	01 c0       	rjmp	.+2      	; 0x1f2a4 <__vector_28+0x42>
   1f2a2:	92 e0       	ldi	r25, 0x02	; 2
   1f2a4:	80 91 60 01 	lds	r24, 0x0160
   1f2a8:	89 2b       	or	r24, r25
   1f2aa:	80 93 60 01 	sts	0x0160, r24
   1f2ae:	ff 91       	pop	r31
   1f2b0:	ef 91       	pop	r30
   1f2b2:	9f 91       	pop	r25
   1f2b4:	8f 91       	pop	r24
   1f2b6:	2f 91       	pop	r18
   1f2b8:	0f 90       	pop	r0
   1f2ba:	0b be       	out	0x3b, r0	; 59
   1f2bc:	0f 90       	pop	r0
   1f2be:	0f be       	out	0x3f, r0	; 63
   1f2c0:	0f 90       	pop	r0
   1f2c2:	1f 90       	pop	r1
   1f2c4:	18 95       	reti

0001f2c6 <__vector_29>:
   1f2c6:	1f 92       	push	r1
   1f2c8:	0f 92       	push	r0
   1f2ca:	0f b6       	in	r0, 0x3f	; 63
   1f2cc:	0f 92       	push	r0
   1f2ce:	0b b6       	in	r0, 0x3b	; 59
   1f2d0:	0f 92       	push	r0
   1f2d2:	11 24       	eor	r1, r1
   1f2d4:	8f 93       	push	r24
   1f2d6:	9f 93       	push	r25
   1f2d8:	ef 93       	push	r30
   1f2da:	ff 93       	push	r31
   1f2dc:	90 91 1c 01 	lds	r25, 0x011C
   1f2e0:	80 91 1d 01 	lds	r24, 0x011D
   1f2e4:	98 17       	cp	r25, r24
   1f2e6:	69 f0       	breq	.+26     	; 0x1f302 <__vector_29+0x3c>
   1f2e8:	e0 91 1d 01 	lds	r30, 0x011D
   1f2ec:	ef 5f       	subi	r30, 0xFF	; 255
   1f2ee:	ef 71       	andi	r30, 0x1F	; 31
   1f2f0:	e0 93 1d 01 	sts	0x011D, r30
   1f2f4:	f0 e0       	ldi	r31, 0x00	; 0
   1f2f6:	e2 5e       	subi	r30, 0xE2	; 226
   1f2f8:	fe 4f       	sbci	r31, 0xFE	; 254
   1f2fa:	80 81       	ld	r24, Z
   1f2fc:	80 93 ce 00 	sts	0x00CE, r24
   1f300:	05 c0       	rjmp	.+10     	; 0x1f30c <__vector_29+0x46>
   1f302:	80 91 c9 00 	lds	r24, 0x00C9
   1f306:	8f 7d       	andi	r24, 0xDF	; 223
   1f308:	80 93 c9 00 	sts	0x00C9, r24
   1f30c:	ff 91       	pop	r31
   1f30e:	ef 91       	pop	r30
   1f310:	9f 91       	pop	r25
   1f312:	8f 91       	pop	r24
   1f314:	0f 90       	pop	r0
   1f316:	0b be       	out	0x3b, r0	; 59
   1f318:	0f 90       	pop	r0
   1f31a:	0f be       	out	0x3f, r0	; 63
   1f31c:	0f 90       	pop	r0
   1f31e:	1f 90       	pop	r1
   1f320:	18 95       	reti

0001f322 <uart1_init>:
   1f322:	10 92 1c 01 	sts	0x011C, r1
   1f326:	10 92 1d 01 	sts	0x011D, r1
   1f32a:	10 92 3e 01 	sts	0x013E, r1
   1f32e:	10 92 3f 01 	sts	0x013F, r1
   1f332:	97 ff       	sbrs	r25, 7
   1f334:	04 c0       	rjmp	.+8      	; 0x1f33e <uart1_init+0x1c>
   1f336:	22 e0       	ldi	r18, 0x02	; 2
   1f338:	20 93 c8 00 	sts	0x00C8, r18
   1f33c:	9f 77       	andi	r25, 0x7F	; 127
   1f33e:	90 93 cd 00 	sts	0x00CD, r25
   1f342:	80 93 cc 00 	sts	0x00CC, r24
   1f346:	88 e9       	ldi	r24, 0x98	; 152
   1f348:	80 93 c9 00 	sts	0x00C9, r24
   1f34c:	86 e0       	ldi	r24, 0x06	; 6
   1f34e:	80 93 ca 00 	sts	0x00CA, r24
   1f352:	08 95       	ret

0001f354 <uart1_getc>:
   1f354:	90 91 3e 01 	lds	r25, 0x013E
   1f358:	80 91 3f 01 	lds	r24, 0x013F
   1f35c:	98 17       	cp	r25, r24
   1f35e:	81 f0       	breq	.+32     	; 0x1f380 <uart1_getc+0x2c>
   1f360:	e0 91 3f 01 	lds	r30, 0x013F
   1f364:	ef 5f       	subi	r30, 0xFF	; 255
   1f366:	ef 71       	andi	r30, 0x1F	; 31
   1f368:	e0 93 3f 01 	sts	0x013F, r30
   1f36c:	f0 e0       	ldi	r31, 0x00	; 0
   1f36e:	e0 5c       	subi	r30, 0xC0	; 192
   1f370:	fe 4f       	sbci	r31, 0xFE	; 254
   1f372:	20 81       	ld	r18, Z
   1f374:	80 91 60 01 	lds	r24, 0x0160
   1f378:	10 92 61 01 	sts	0x0161, r1
   1f37c:	30 e0       	ldi	r19, 0x00	; 0
   1f37e:	02 c0       	rjmp	.+4      	; 0x1f384 <uart1_getc+0x30>
   1f380:	20 e0       	ldi	r18, 0x00	; 0
   1f382:	31 e0       	ldi	r19, 0x01	; 1
   1f384:	c9 01       	movw	r24, r18
   1f386:	08 95       	ret

0001f388 <uart1_putc>:
   1f388:	90 91 1c 01 	lds	r25, 0x011C
   1f38c:	9f 5f       	subi	r25, 0xFF	; 255
   1f38e:	9f 71       	andi	r25, 0x1F	; 31
   1f390:	20 91 1d 01 	lds	r18, 0x011D
   1f394:	92 17       	cp	r25, r18
   1f396:	e1 f3       	breq	.-8      	; 0x1f390 <uart1_putc+0x8>
   1f398:	e9 2f       	mov	r30, r25
   1f39a:	f0 e0       	ldi	r31, 0x00	; 0
   1f39c:	e2 5e       	subi	r30, 0xE2	; 226
   1f39e:	fe 4f       	sbci	r31, 0xFE	; 254
   1f3a0:	80 83       	st	Z, r24
   1f3a2:	90 93 1c 01 	sts	0x011C, r25
   1f3a6:	80 91 c9 00 	lds	r24, 0x00C9
   1f3aa:	80 62       	ori	r24, 0x20	; 32
   1f3ac:	80 93 c9 00 	sts	0x00C9, r24
   1f3b0:	08 95       	ret

0001f3b2 <uart1_puts>:
   1f3b2:	ef 92       	push	r14
   1f3b4:	ff 92       	push	r15
   1f3b6:	cf 93       	push	r28
   1f3b8:	df 93       	push	r29
   1f3ba:	e8 2e       	mov	r14, r24
   1f3bc:	e7 01       	movw	r28, r14
   1f3be:	7e 01       	movw	r14, r28
   1f3c0:	f9 2e       	mov	r15, r25
   1f3c2:	e7 01       	movw	r28, r14
   1f3c4:	02 c0       	rjmp	.+4      	; 0x1f3ca <uart1_puts+0x18>
   1f3c6:	0e 94 c4 f9 	call	0x1f388	; 0x1f388 <uart1_putc>
   1f3ca:	89 91       	ld	r24, Y+
   1f3cc:	88 23       	and	r24, r24
   1f3ce:	d9 f7       	brne	.-10     	; 0x1f3c6 <uart1_puts+0x14>
   1f3d0:	df 91       	pop	r29
   1f3d2:	cf 91       	pop	r28
   1f3d4:	ff 90       	pop	r15
   1f3d6:	ef 90       	pop	r14
   1f3d8:	08 95       	ret

0001f3da <uart1_puts_p>:
   1f3da:	cf 93       	push	r28
   1f3dc:	df 93       	push	r29
   1f3de:	ec 01       	movw	r28, r24
   1f3e0:	02 c0       	rjmp	.+4      	; 0x1f3e6 <uart1_puts_p+0xc>
   1f3e2:	0e 94 c4 f9 	call	0x1f388	; 0x1f388 <uart1_putc>
   1f3e6:	fe 01       	movw	r30, r28
   1f3e8:	21 96       	adiw	r28, 0x01	; 1
   1f3ea:	84 91       	lpm	r24, Z+
   1f3ec:	88 23       	and	r24, r24
   1f3ee:	c9 f7       	brne	.-14     	; 0x1f3e2 <uart1_puts_p+0x8>
   1f3f0:	df 91       	pop	r29
   1f3f2:	cf 91       	pop	r28
   1f3f4:	08 95       	ret

0001f3f6 <hex2num>:
   1f3f6:	28 2f       	mov	r18, r24
   1f3f8:	39 2f       	mov	r19, r25
   1f3fa:	f9 01       	movw	r30, r18
   1f3fc:	20 e0       	ldi	r18, 0x00	; 0
   1f3fe:	30 e0       	ldi	r19, 0x00	; 0
   1f400:	90 e0       	ldi	r25, 0x00	; 0
   1f402:	19 c0       	rjmp	.+50     	; 0x1f436 <hex2num+0x40>
   1f404:	81 91       	ld	r24, Z+
   1f406:	48 2f       	mov	r20, r24
   1f408:	40 53       	subi	r20, 0x30	; 48
   1f40a:	4a 30       	cpi	r20, 0x0A	; 10
   1f40c:	58 f0       	brcs	.+22     	; 0x1f424 <hex2num+0x2e>
   1f40e:	41 51       	subi	r20, 0x11	; 17
   1f410:	46 30       	cpi	r20, 0x06	; 6
   1f412:	10 f4       	brcc	.+4      	; 0x1f418 <hex2num+0x22>
   1f414:	87 53       	subi	r24, 0x37	; 55
   1f416:	07 c0       	rjmp	.+14     	; 0x1f426 <hex2num+0x30>
   1f418:	48 2f       	mov	r20, r24
   1f41a:	41 56       	subi	r20, 0x61	; 97
   1f41c:	46 30       	cpi	r20, 0x06	; 6
   1f41e:	18 f4       	brcc	.+6      	; 0x1f426 <hex2num+0x30>
   1f420:	87 55       	subi	r24, 0x57	; 87
   1f422:	01 c0       	rjmp	.+2      	; 0x1f426 <hex2num+0x30>
   1f424:	84 2f       	mov	r24, r20
   1f426:	44 e0       	ldi	r20, 0x04	; 4
   1f428:	22 0f       	add	r18, r18
   1f42a:	33 1f       	adc	r19, r19
   1f42c:	4a 95       	dec	r20
   1f42e:	e1 f7       	brne	.-8      	; 0x1f428 <hex2num+0x32>
   1f430:	28 0f       	add	r18, r24
   1f432:	31 1d       	adc	r19, r1
   1f434:	9f 5f       	subi	r25, 0xFF	; 255
   1f436:	96 17       	cp	r25, r22
   1f438:	28 f3       	brcs	.-54     	; 0x1f404 <hex2num+0xe>
   1f43a:	c9 01       	movw	r24, r18
   1f43c:	08 95       	ret

0001f43e <decodeMessage>:
   1f43e:	e0 91 b8 02 	lds	r30, 0x02B8
   1f442:	ef 5f       	subi	r30, 0xFF	; 255
   1f444:	e0 93 b8 02 	sts	0x02B8, r30
   1f448:	f0 e0       	ldi	r31, 0x00	; 0
   1f44a:	e8 54       	subi	r30, 0x48	; 72
   1f44c:	fd 4f       	sbci	r31, 0xFD	; 253
   1f44e:	80 83       	st	Z, r24
   1f450:	80 91 b8 02 	lds	r24, 0x02B8
   1f454:	82 30       	cpi	r24, 0x02	; 2
   1f456:	49 f0       	breq	.+18     	; 0x1f46a <decodeMessage+0x2c>
   1f458:	84 30       	cpi	r24, 0x04	; 4
   1f45a:	c9 f0       	breq	.+50     	; 0x1f48e <decodeMessage+0x50>
   1f45c:	81 30       	cpi	r24, 0x01	; 1
   1f45e:	69 f5       	brne	.+90     	; 0x1f4ba <decodeMessage+0x7c>
   1f460:	80 91 b9 02 	lds	r24, 0x02B9
   1f464:	82 36       	cpi	r24, 0x62	; 98
   1f466:	81 f4       	brne	.+32     	; 0x1f488 <decodeMessage+0x4a>
   1f468:	28 c0       	rjmp	.+80     	; 0x1f4ba <decodeMessage+0x7c>
   1f46a:	90 91 b9 02 	lds	r25, 0x02B9
   1f46e:	92 36       	cpi	r25, 0x62	; 98
   1f470:	59 f4       	brne	.+22     	; 0x1f488 <decodeMessage+0x4a>
   1f472:	90 91 ba 02 	lds	r25, 0x02BA
   1f476:	98 36       	cpi	r25, 0x68	; 104
   1f478:	19 f0       	breq	.+6      	; 0x1f480 <decodeMessage+0x42>
   1f47a:	93 37       	cpi	r25, 0x73	; 115
   1f47c:	29 f4       	brne	.+10     	; 0x1f488 <decodeMessage+0x4a>
   1f47e:	81 e0       	ldi	r24, 0x01	; 1
   1f480:	80 93 b7 01 	sts	0x01B7, r24
   1f484:	84 e0       	ldi	r24, 0x04	; 4
   1f486:	17 c0       	rjmp	.+46     	; 0x1f4b6 <decodeMessage+0x78>
   1f488:	10 92 b8 02 	sts	0x02B8, r1
   1f48c:	16 c0       	rjmp	.+44     	; 0x1f4ba <decodeMessage+0x7c>
   1f48e:	80 91 b9 02 	lds	r24, 0x02B9
   1f492:	82 36       	cpi	r24, 0x62	; 98
   1f494:	91 f4       	brne	.+36     	; 0x1f4ba <decodeMessage+0x7c>
   1f496:	8b eb       	ldi	r24, 0xBB	; 187
   1f498:	92 e0       	ldi	r25, 0x02	; 2
   1f49a:	62 e0       	ldi	r22, 0x02	; 2
   1f49c:	0e 94 fb f9 	call	0x1f3f6	; 0x1f3f6 <hex2num>
   1f4a0:	80 93 b5 01 	sts	0x01B5, r24
   1f4a4:	80 91 ba 02 	lds	r24, 0x02BA
   1f4a8:	88 36       	cpi	r24, 0x68	; 104
   1f4aa:	39 f4       	brne	.+14     	; 0x1f4ba <decodeMessage+0x7c>
   1f4ac:	90 91 b6 01 	lds	r25, 0x01B6
   1f4b0:	80 91 b5 01 	lds	r24, 0x01B5
   1f4b4:	89 0f       	add	r24, r25
   1f4b6:	80 93 b6 01 	sts	0x01B6, r24
   1f4ba:	80 91 b8 02 	lds	r24, 0x02B8
   1f4be:	82 30       	cpi	r24, 0x02	; 2
   1f4c0:	48 f0       	brcs	.+18     	; 0x1f4d4 <decodeMessage+0x96>
   1f4c2:	90 91 b6 01 	lds	r25, 0x01B6
   1f4c6:	89 17       	cp	r24, r25
   1f4c8:	39 f4       	brne	.+14     	; 0x1f4d8 <decodeMessage+0x9a>
   1f4ca:	10 92 b8 02 	sts	0x02B8, r1
   1f4ce:	80 91 b7 01 	lds	r24, 0x01B7
   1f4d2:	08 95       	ret
   1f4d4:	80 e0       	ldi	r24, 0x00	; 0
   1f4d6:	08 95       	ret
   1f4d8:	80 e0       	ldi	r24, 0x00	; 0
   1f4da:	08 95       	ret

0001f4dc <program_page>:
   1f4dc:	cf 92       	push	r12
   1f4de:	df 92       	push	r13
   1f4e0:	ef 92       	push	r14
   1f4e2:	ff 92       	push	r15
   1f4e4:	0f 93       	push	r16
   1f4e6:	1f 93       	push	r17
   1f4e8:	cf 93       	push	r28
   1f4ea:	df 93       	push	r29
   1f4ec:	da 01       	movw	r26, r20
   1f4ee:	df b6       	in	r13, 0x3f	; 63
   1f4f0:	f8 94       	cli
   1f4f2:	f9 99       	sbic	0x1f, 1	; 31
   1f4f4:	fe cf       	rjmp	.-4      	; 0x1f4f2 <program_page+0x16>
   1f4f6:	23 e0       	ldi	r18, 0x03	; 3
   1f4f8:	fb 01       	movw	r30, r22
   1f4fa:	80 93 5b 00 	sts	0x005B, r24
   1f4fe:	20 93 57 00 	sts	0x0057, r18
   1f502:	e8 95       	spm
   1f504:	07 b6       	in	r0, 0x37	; 55
   1f506:	00 fc       	sbrc	r0, 0
   1f508:	fd cf       	rjmp	.-6      	; 0x1f504 <program_page+0x28>
   1f50a:	9b 01       	movw	r18, r22
   1f50c:	ac 01       	movw	r20, r24
   1f50e:	00 e0       	ldi	r16, 0x00	; 0
   1f510:	10 e0       	ldi	r17, 0x00	; 0
   1f512:	cc 24       	eor	r12, r12
   1f514:	c3 94       	inc	r12
   1f516:	ec 91       	ld	r30, X
   1f518:	11 96       	adiw	r26, 0x01	; 1
   1f51a:	fc 90       	ld	r15, X
   1f51c:	11 97       	sbiw	r26, 0x01	; 1
   1f51e:	ee 24       	eor	r14, r14
   1f520:	e7 01       	movw	r28, r14
   1f522:	ce 0f       	add	r28, r30
   1f524:	d1 1d       	adc	r29, r1
   1f526:	12 96       	adiw	r26, 0x02	; 2
   1f528:	0e 01       	movw	r0, r28
   1f52a:	f9 01       	movw	r30, r18
   1f52c:	40 93 5b 00 	sts	0x005B, r20
   1f530:	c0 92 57 00 	sts	0x0057, r12
   1f534:	e8 95       	spm
   1f536:	11 24       	eor	r1, r1
   1f538:	0e 5f       	subi	r16, 0xFE	; 254
   1f53a:	1f 4f       	sbci	r17, 0xFF	; 255
   1f53c:	2e 5f       	subi	r18, 0xFE	; 254
   1f53e:	3f 4f       	sbci	r19, 0xFF	; 255
   1f540:	4f 4f       	sbci	r20, 0xFF	; 255
   1f542:	5f 4f       	sbci	r21, 0xFF	; 255
   1f544:	e1 e0       	ldi	r30, 0x01	; 1
   1f546:	00 30       	cpi	r16, 0x00	; 0
   1f548:	1e 07       	cpc	r17, r30
   1f54a:	29 f7       	brne	.-54     	; 0x1f516 <program_page+0x3a>
   1f54c:	25 e0       	ldi	r18, 0x05	; 5
   1f54e:	fb 01       	movw	r30, r22
   1f550:	80 93 5b 00 	sts	0x005B, r24
   1f554:	20 93 57 00 	sts	0x0057, r18
   1f558:	e8 95       	spm
   1f55a:	07 b6       	in	r0, 0x37	; 55
   1f55c:	00 fc       	sbrc	r0, 0
   1f55e:	fd cf       	rjmp	.-6      	; 0x1f55a <program_page+0x7e>
   1f560:	81 e1       	ldi	r24, 0x11	; 17
   1f562:	80 93 57 00 	sts	0x0057, r24
   1f566:	e8 95       	spm
   1f568:	df be       	out	0x3f, r13	; 63
   1f56a:	df 91       	pop	r29
   1f56c:	cf 91       	pop	r28
   1f56e:	1f 91       	pop	r17
   1f570:	0f 91       	pop	r16
   1f572:	ff 90       	pop	r15
   1f574:	ef 90       	pop	r14
   1f576:	df 90       	pop	r13
   1f578:	cf 90       	pop	r12
   1f57a:	08 95       	ret

0001f57c <parse_hex_input>:
   1f57c:	cf 93       	push	r28
   1f57e:	df 93       	push	r29
   1f580:	20 91 1a 01 	lds	r18, 0x011A
   1f584:	21 30       	cpi	r18, 0x01	; 1
   1f586:	09 f0       	breq	.+2      	; 0x1f58a <parse_hex_input+0xe>
   1f588:	5b c1       	rjmp	.+694    	; 0x1f840 <parse_hex_input+0x2c4>
   1f58a:	90 91 ae 01 	lds	r25, 0x01AE
   1f58e:	93 30       	cpi	r25, 0x03	; 3
   1f590:	09 f4       	brne	.+2      	; 0x1f594 <parse_hex_input+0x18>
   1f592:	76 c0       	rjmp	.+236    	; 0x1f680 <parse_hex_input+0x104>
   1f594:	94 30       	cpi	r25, 0x04	; 4
   1f596:	28 f4       	brcc	.+10     	; 0x1f5a2 <parse_hex_input+0x26>
   1f598:	91 30       	cpi	r25, 0x01	; 1
   1f59a:	c9 f0       	breq	.+50     	; 0x1f5ce <parse_hex_input+0x52>
   1f59c:	92 30       	cpi	r25, 0x02	; 2
   1f59e:	d8 f5       	brcc	.+118    	; 0x1f616 <parse_hex_input+0x9a>
   1f5a0:	0a c0       	rjmp	.+20     	; 0x1f5b6 <parse_hex_input+0x3a>
   1f5a2:	95 30       	cpi	r25, 0x05	; 5
   1f5a4:	09 f4       	brne	.+2      	; 0x1f5a8 <parse_hex_input+0x2c>
   1f5a6:	02 c1       	rjmp	.+516    	; 0x1f7ac <parse_hex_input+0x230>
   1f5a8:	95 30       	cpi	r25, 0x05	; 5
   1f5aa:	08 f4       	brcc	.+2      	; 0x1f5ae <parse_hex_input+0x32>
   1f5ac:	96 c0       	rjmp	.+300    	; 0x1f6da <parse_hex_input+0x15e>
   1f5ae:	96 30       	cpi	r25, 0x06	; 6
   1f5b0:	09 f0       	breq	.+2      	; 0x1f5b4 <parse_hex_input+0x38>
   1f5b2:	46 c1       	rjmp	.+652    	; 0x1f840 <parse_hex_input+0x2c4>
   1f5b4:	42 c1       	rjmp	.+644    	; 0x1f83a <parse_hex_input+0x2be>
   1f5b6:	8a 33       	cpi	r24, 0x3A	; 58
   1f5b8:	09 f0       	breq	.+2      	; 0x1f5bc <parse_hex_input+0x40>
   1f5ba:	42 c1       	rjmp	.+644    	; 0x1f840 <parse_hex_input+0x2c4>
   1f5bc:	20 93 ae 01 	sts	0x01AE, r18
   1f5c0:	10 92 af 01 	sts	0x01AF, r1
   1f5c4:	10 92 ab 01 	sts	0x01AB, r1
   1f5c8:	10 92 aa 01 	sts	0x01AA, r1
   1f5cc:	39 c1       	rjmp	.+626    	; 0x1f840 <parse_hex_input+0x2c4>
   1f5ce:	90 91 af 01 	lds	r25, 0x01AF
   1f5d2:	e9 2f       	mov	r30, r25
   1f5d4:	f0 e0       	ldi	r31, 0x00	; 0
   1f5d6:	e3 52       	subi	r30, 0x23	; 35
   1f5d8:	fd 4f       	sbci	r31, 0xFD	; 253
   1f5da:	80 83       	st	Z, r24
   1f5dc:	89 2f       	mov	r24, r25
   1f5de:	8f 5f       	subi	r24, 0xFF	; 255
   1f5e0:	80 93 af 01 	sts	0x01AF, r24
   1f5e4:	82 30       	cpi	r24, 0x02	; 2
   1f5e6:	09 f0       	breq	.+2      	; 0x1f5ea <parse_hex_input+0x6e>
   1f5e8:	2b c1       	rjmp	.+598    	; 0x1f840 <parse_hex_input+0x2c4>
   1f5ea:	80 93 ae 01 	sts	0x01AE, r24
   1f5ee:	10 92 af 01 	sts	0x01AF, r1
   1f5f2:	8d ed       	ldi	r24, 0xDD	; 221
   1f5f4:	92 e0       	ldi	r25, 0x02	; 2
   1f5f6:	62 e0       	ldi	r22, 0x02	; 2
   1f5f8:	0e 94 fb f9 	call	0x1f3f6	; 0x1f3f6 <hex2num>
   1f5fc:	80 93 b0 01 	sts	0x01B0, r24
   1f600:	20 91 aa 01 	lds	r18, 0x01AA
   1f604:	30 91 ab 01 	lds	r19, 0x01AB
   1f608:	28 0f       	add	r18, r24
   1f60a:	31 1d       	adc	r19, r1
   1f60c:	30 93 ab 01 	sts	0x01AB, r19
   1f610:	20 93 aa 01 	sts	0x01AA, r18
   1f614:	15 c1       	rjmp	.+554    	; 0x1f840 <parse_hex_input+0x2c4>
   1f616:	90 91 af 01 	lds	r25, 0x01AF
   1f61a:	e9 2f       	mov	r30, r25
   1f61c:	f0 e0       	ldi	r31, 0x00	; 0
   1f61e:	e3 52       	subi	r30, 0x23	; 35
   1f620:	fd 4f       	sbci	r31, 0xFD	; 253
   1f622:	80 83       	st	Z, r24
   1f624:	89 2f       	mov	r24, r25
   1f626:	8f 5f       	subi	r24, 0xFF	; 255
   1f628:	80 93 af 01 	sts	0x01AF, r24
   1f62c:	84 30       	cpi	r24, 0x04	; 4
   1f62e:	09 f0       	breq	.+2      	; 0x1f632 <parse_hex_input+0xb6>
   1f630:	07 c1       	rjmp	.+526    	; 0x1f840 <parse_hex_input+0x2c4>
   1f632:	83 e0       	ldi	r24, 0x03	; 3
   1f634:	80 93 ae 01 	sts	0x01AE, r24
   1f638:	10 92 af 01 	sts	0x01AF, r1
   1f63c:	8d ed       	ldi	r24, 0xDD	; 221
   1f63e:	92 e0       	ldi	r25, 0x02	; 2
   1f640:	64 e0       	ldi	r22, 0x04	; 4
   1f642:	0e 94 fb f9 	call	0x1f3f6	; 0x1f3f6 <hex2num>
   1f646:	90 93 a7 01 	sts	0x01A7, r25
   1f64a:	80 93 a6 01 	sts	0x01A6, r24
   1f64e:	20 91 aa 01 	lds	r18, 0x01AA
   1f652:	30 91 ab 01 	lds	r19, 0x01AB
   1f656:	28 0f       	add	r18, r24
   1f658:	31 1d       	adc	r19, r1
   1f65a:	29 0f       	add	r18, r25
   1f65c:	31 1d       	adc	r19, r1
   1f65e:	30 93 ab 01 	sts	0x01AB, r19
   1f662:	20 93 aa 01 	sts	0x01AA, r18
   1f666:	20 91 1b 01 	lds	r18, 0x011B
   1f66a:	22 23       	and	r18, r18
   1f66c:	09 f4       	brne	.+2      	; 0x1f670 <parse_hex_input+0xf4>
   1f66e:	e8 c0       	rjmp	.+464    	; 0x1f840 <parse_hex_input+0x2c4>
   1f670:	80 70       	andi	r24, 0x00	; 0
   1f672:	90 93 a9 01 	sts	0x01A9, r25
   1f676:	80 93 a8 01 	sts	0x01A8, r24
   1f67a:	10 92 1b 01 	sts	0x011B, r1
   1f67e:	e0 c0       	rjmp	.+448    	; 0x1f840 <parse_hex_input+0x2c4>
   1f680:	90 91 af 01 	lds	r25, 0x01AF
   1f684:	e9 2f       	mov	r30, r25
   1f686:	f0 e0       	ldi	r31, 0x00	; 0
   1f688:	e3 52       	subi	r30, 0x23	; 35
   1f68a:	fd 4f       	sbci	r31, 0xFD	; 253
   1f68c:	80 83       	st	Z, r24
   1f68e:	89 2f       	mov	r24, r25
   1f690:	8f 5f       	subi	r24, 0xFF	; 255
   1f692:	80 93 af 01 	sts	0x01AF, r24
   1f696:	82 30       	cpi	r24, 0x02	; 2
   1f698:	09 f0       	breq	.+2      	; 0x1f69c <parse_hex_input+0x120>
   1f69a:	d2 c0       	rjmp	.+420    	; 0x1f840 <parse_hex_input+0x2c4>
   1f69c:	10 92 af 01 	sts	0x01AF, r1
   1f6a0:	10 92 b1 01 	sts	0x01B1, r1
   1f6a4:	8d ed       	ldi	r24, 0xDD	; 221
   1f6a6:	92 e0       	ldi	r25, 0x02	; 2
   1f6a8:	62 e0       	ldi	r22, 0x02	; 2
   1f6aa:	0e 94 fb f9 	call	0x1f3f6	; 0x1f3f6 <hex2num>
   1f6ae:	80 93 b2 01 	sts	0x01B2, r24
   1f6b2:	20 91 aa 01 	lds	r18, 0x01AA
   1f6b6:	30 91 ab 01 	lds	r19, 0x01AB
   1f6ba:	28 0f       	add	r18, r24
   1f6bc:	31 1d       	adc	r19, r1
   1f6be:	30 93 ab 01 	sts	0x01AB, r19
   1f6c2:	20 93 aa 01 	sts	0x01AA, r18
   1f6c6:	88 23       	and	r24, r24
   1f6c8:	31 f0       	breq	.+12     	; 0x1f6d6 <parse_hex_input+0x15a>
   1f6ca:	81 30       	cpi	r24, 0x01	; 1
   1f6cc:	21 f4       	brne	.+8      	; 0x1f6d6 <parse_hex_input+0x15a>
   1f6ce:	85 e0       	ldi	r24, 0x05	; 5
   1f6d0:	80 93 ae 01 	sts	0x01AE, r24
   1f6d4:	b5 c0       	rjmp	.+362    	; 0x1f840 <parse_hex_input+0x2c4>
   1f6d6:	84 e0       	ldi	r24, 0x04	; 4
   1f6d8:	fb cf       	rjmp	.-10     	; 0x1f6d0 <parse_hex_input+0x154>
   1f6da:	90 91 af 01 	lds	r25, 0x01AF
   1f6de:	e9 2f       	mov	r30, r25
   1f6e0:	f0 e0       	ldi	r31, 0x00	; 0
   1f6e2:	e3 52       	subi	r30, 0x23	; 35
   1f6e4:	fd 4f       	sbci	r31, 0xFD	; 253
   1f6e6:	80 83       	st	Z, r24
   1f6e8:	89 2f       	mov	r24, r25
   1f6ea:	8f 5f       	subi	r24, 0xFF	; 255
   1f6ec:	80 93 af 01 	sts	0x01AF, r24
   1f6f0:	82 30       	cpi	r24, 0x02	; 2
   1f6f2:	09 f0       	breq	.+2      	; 0x1f6f6 <parse_hex_input+0x17a>
   1f6f4:	a5 c0       	rjmp	.+330    	; 0x1f840 <parse_hex_input+0x2c4>
   1f6f6:	8e e2       	ldi	r24, 0x2E	; 46
   1f6f8:	0e 94 fa f8 	call	0x1f1f4	; 0x1f1f4 <uart_putc>
   1f6fc:	10 92 af 01 	sts	0x01AF, r1
   1f700:	c0 91 ac 01 	lds	r28, 0x01AC
   1f704:	d0 91 ad 01 	lds	r29, 0x01AD
   1f708:	8d ed       	ldi	r24, 0xDD	; 221
   1f70a:	92 e0       	ldi	r25, 0x02	; 2
   1f70c:	62 e0       	ldi	r22, 0x02	; 2
   1f70e:	0e 94 fb f9 	call	0x1f3f6	; 0x1f3f6 <hex2num>
   1f712:	fe 01       	movw	r30, r28
   1f714:	e8 54       	subi	r30, 0x48	; 72
   1f716:	fe 4f       	sbci	r31, 0xFE	; 254
   1f718:	80 83       	st	Z, r24
   1f71a:	20 91 aa 01 	lds	r18, 0x01AA
   1f71e:	30 91 ab 01 	lds	r19, 0x01AB
   1f722:	28 0f       	add	r18, r24
   1f724:	31 1d       	adc	r19, r1
   1f726:	30 93 ab 01 	sts	0x01AB, r19
   1f72a:	20 93 aa 01 	sts	0x01AA, r18
   1f72e:	21 96       	adiw	r28, 0x01	; 1
   1f730:	d0 93 ad 01 	sts	0x01AD, r29
   1f734:	c0 93 ac 01 	sts	0x01AC, r28
   1f738:	80 91 b1 01 	lds	r24, 0x01B1
   1f73c:	8f 5f       	subi	r24, 0xFF	; 255
   1f73e:	80 93 b1 01 	sts	0x01B1, r24
   1f742:	90 91 b0 01 	lds	r25, 0x01B0
   1f746:	89 17       	cp	r24, r25
   1f748:	29 f4       	brne	.+10     	; 0x1f754 <parse_hex_input+0x1d8>
   1f74a:	85 e0       	ldi	r24, 0x05	; 5
   1f74c:	80 93 ae 01 	sts	0x01AE, r24
   1f750:	10 92 b1 01 	sts	0x01B1, r1
   1f754:	81 e0       	ldi	r24, 0x01	; 1
   1f756:	c0 30       	cpi	r28, 0x00	; 0
   1f758:	d8 07       	cpc	r29, r24
   1f75a:	09 f0       	breq	.+2      	; 0x1f75e <parse_hex_input+0x1e2>
   1f75c:	71 c0       	rjmp	.+226    	; 0x1f840 <parse_hex_input+0x2c4>
   1f75e:	80 e0       	ldi	r24, 0x00	; 0
   1f760:	91 e0       	ldi	r25, 0x01	; 1
   1f762:	0e 94 0f f9 	call	0x1f21e	; 0x1f21e <uart_puts>
   1f766:	8f e7       	ldi	r24, 0x7F	; 127
   1f768:	9a e1       	ldi	r25, 0x1A	; 26
   1f76a:	a6 e0       	ldi	r26, 0x06	; 6
   1f76c:	81 50       	subi	r24, 0x01	; 1
   1f76e:	90 40       	sbci	r25, 0x00	; 0
   1f770:	a0 40       	sbci	r26, 0x00	; 0
   1f772:	e1 f7       	brne	.-8      	; 0x1f76c <parse_hex_input+0x1f0>
   1f774:	00 c0       	rjmp	.+0      	; 0x1f776 <parse_hex_input+0x1fa>
   1f776:	00 00       	nop
   1f778:	60 91 a8 01 	lds	r22, 0x01A8
   1f77c:	70 91 a9 01 	lds	r23, 0x01A9
   1f780:	80 e0       	ldi	r24, 0x00	; 0
   1f782:	90 e0       	ldi	r25, 0x00	; 0
   1f784:	48 eb       	ldi	r20, 0xB8	; 184
   1f786:	51 e0       	ldi	r21, 0x01	; 1
   1f788:	0e 94 6e fa 	call	0x1f4dc	; 0x1f4dc <program_page>
   1f78c:	88 eb       	ldi	r24, 0xB8	; 184
   1f78e:	91 e0       	ldi	r25, 0x01	; 1
   1f790:	6f ef       	ldi	r22, 0xFF	; 255
   1f792:	70 e0       	ldi	r23, 0x00	; 0
   1f794:	40 e0       	ldi	r20, 0x00	; 0
   1f796:	51 e0       	ldi	r21, 0x01	; 1
   1f798:	0e 94 8d fc 	call	0x1f91a	; 0x1f91a <memset>
   1f79c:	10 92 ad 01 	sts	0x01AD, r1
   1f7a0:	10 92 ac 01 	sts	0x01AC, r1
   1f7a4:	81 e0       	ldi	r24, 0x01	; 1
   1f7a6:	80 93 1b 01 	sts	0x011B, r24
   1f7aa:	4a c0       	rjmp	.+148    	; 0x1f840 <parse_hex_input+0x2c4>
   1f7ac:	90 91 af 01 	lds	r25, 0x01AF
   1f7b0:	e9 2f       	mov	r30, r25
   1f7b2:	f0 e0       	ldi	r31, 0x00	; 0
   1f7b4:	e3 52       	subi	r30, 0x23	; 35
   1f7b6:	fd 4f       	sbci	r31, 0xFD	; 253
   1f7b8:	80 83       	st	Z, r24
   1f7ba:	89 2f       	mov	r24, r25
   1f7bc:	8f 5f       	subi	r24, 0xFF	; 255
   1f7be:	80 93 af 01 	sts	0x01AF, r24
   1f7c2:	82 30       	cpi	r24, 0x02	; 2
   1f7c4:	e9 f5       	brne	.+122    	; 0x1f840 <parse_hex_input+0x2c4>
   1f7c6:	8d ed       	ldi	r24, 0xDD	; 221
   1f7c8:	92 e0       	ldi	r25, 0x02	; 2
   1f7ca:	62 e0       	ldi	r22, 0x02	; 2
   1f7cc:	0e 94 fb f9 	call	0x1f3f6	; 0x1f3f6 <hex2num>
   1f7d0:	80 93 b3 01 	sts	0x01B3, r24
   1f7d4:	20 91 aa 01 	lds	r18, 0x01AA
   1f7d8:	30 91 ab 01 	lds	r19, 0x01AB
   1f7dc:	28 0f       	add	r18, r24
   1f7de:	31 1d       	adc	r19, r1
   1f7e0:	30 70       	andi	r19, 0x00	; 0
   1f7e2:	30 93 ab 01 	sts	0x01AB, r19
   1f7e6:	20 93 aa 01 	sts	0x01AA, r18
   1f7ea:	80 91 b2 01 	lds	r24, 0x01B2
   1f7ee:	81 30       	cpi	r24, 0x01	; 1
   1f7f0:	c9 f4       	brne	.+50     	; 0x1f824 <parse_hex_input+0x2a8>
   1f7f2:	80 e0       	ldi	r24, 0x00	; 0
   1f7f4:	91 e0       	ldi	r25, 0x01	; 1
   1f7f6:	0e 94 0f f9 	call	0x1f21e	; 0x1f21e <uart_puts>
   1f7fa:	8f e7       	ldi	r24, 0x7F	; 127
   1f7fc:	9a e1       	ldi	r25, 0x1A	; 26
   1f7fe:	a6 e0       	ldi	r26, 0x06	; 6
   1f800:	81 50       	subi	r24, 0x01	; 1
   1f802:	90 40       	sbci	r25, 0x00	; 0
   1f804:	a0 40       	sbci	r26, 0x00	; 0
   1f806:	e1 f7       	brne	.-8      	; 0x1f800 <parse_hex_input+0x284>
   1f808:	00 c0       	rjmp	.+0      	; 0x1f80a <parse_hex_input+0x28e>
   1f80a:	00 00       	nop
   1f80c:	60 91 a8 01 	lds	r22, 0x01A8
   1f810:	70 91 a9 01 	lds	r23, 0x01A9
   1f814:	80 e0       	ldi	r24, 0x00	; 0
   1f816:	90 e0       	ldi	r25, 0x00	; 0
   1f818:	48 eb       	ldi	r20, 0xB8	; 184
   1f81a:	51 e0       	ldi	r21, 0x01	; 1
   1f81c:	0e 94 6e fa 	call	0x1f4dc	; 0x1f4dc <program_page>
   1f820:	10 92 1a 01 	sts	0x011A, r1
   1f824:	80 91 aa 01 	lds	r24, 0x01AA
   1f828:	90 91 ab 01 	lds	r25, 0x01AB
   1f82c:	00 97       	sbiw	r24, 0x00	; 0
   1f82e:	19 f4       	brne	.+6      	; 0x1f836 <parse_hex_input+0x2ba>
   1f830:	10 92 ae 01 	sts	0x01AE, r1
   1f834:	05 c0       	rjmp	.+10     	; 0x1f840 <parse_hex_input+0x2c4>
   1f836:	86 e0       	ldi	r24, 0x06	; 6
   1f838:	4b cf       	rjmp	.-362    	; 0x1f6d0 <parse_hex_input+0x154>
   1f83a:	83 e2       	ldi	r24, 0x23	; 35
   1f83c:	0e 94 fa f8 	call	0x1f1f4	; 0x1f1f4 <uart_putc>
   1f840:	df 91       	pop	r29
   1f842:	cf 91       	pop	r28
   1f844:	08 95       	ret

0001f846 <main>:
   1f846:	1f 93       	push	r17
   1f848:	10 92 b8 02 	sts	0x02B8, r1
   1f84c:	85 e0       	ldi	r24, 0x05	; 5
   1f84e:	ed ed       	ldi	r30, 0xDD	; 221
   1f850:	f2 e0       	ldi	r31, 0x02	; 2
   1f852:	df 01       	movw	r26, r30
   1f854:	1d 92       	st	X+, r1
   1f856:	8a 95       	dec	r24
   1f858:	e9 f7       	brne	.-6      	; 0x1f854 <main+0xe>
   1f85a:	88 eb       	ldi	r24, 0xB8	; 184
   1f85c:	91 e0       	ldi	r25, 0x01	; 1
   1f85e:	6f ef       	ldi	r22, 0xFF	; 255
   1f860:	70 e0       	ldi	r23, 0x00	; 0
   1f862:	40 e0       	ldi	r20, 0x00	; 0
   1f864:	51 e0       	ldi	r21, 0x01	; 1
   1f866:	0e 94 8d fc 	call	0x1f91a	; 0x1f91a <memset>
   1f86a:	85 b7       	in	r24, 0x35	; 53
   1f86c:	80 93 b4 01 	sts	0x01B4, r24
   1f870:	98 2f       	mov	r25, r24
   1f872:	91 60       	ori	r25, 0x01	; 1
   1f874:	95 bf       	out	0x35, r25	; 53
   1f876:	82 60       	ori	r24, 0x02	; 2
   1f878:	85 bf       	out	0x35, r24	; 53
   1f87a:	81 e8       	ldi	r24, 0x81	; 129
   1f87c:	90 e0       	ldi	r25, 0x00	; 0
   1f87e:	0e 94 c7 f8 	call	0x1f18e	; 0x1f18e <uart_init>
   1f882:	78 94       	sei
   1f884:	82 e0       	ldi	r24, 0x02	; 2
   1f886:	91 e0       	ldi	r25, 0x01	; 1
   1f888:	0e 94 0f f9 	call	0x1f21e	; 0x1f21e <uart_puts>
   1f88c:	0e 94 e0 f8 	call	0x1f1c0	; 0x1f1c0 <uart_getc>
   1f890:	90 fd       	sbrc	r25, 0
   1f892:	23 c0       	rjmp	.+70     	; 0x1f8da <main+0x94>
   1f894:	0e 94 1f fa 	call	0x1f43e	; 0x1f43e <decodeMessage>
   1f898:	81 30       	cpi	r24, 0x01	; 1
   1f89a:	c9 f0       	breq	.+50     	; 0x1f8ce <main+0x88>
   1f89c:	82 30       	cpi	r24, 0x02	; 2
   1f89e:	e9 f4       	brne	.+58     	; 0x1f8da <main+0x94>
   1f8a0:	15 e0       	ldi	r17, 0x05	; 5
   1f8a2:	07 c0       	rjmp	.+14     	; 0x1f8b2 <main+0x6c>
   1f8a4:	28 54       	subi	r18, 0x48	; 72
   1f8a6:	3d 4f       	sbci	r19, 0xFD	; 253
   1f8a8:	f9 01       	movw	r30, r18
   1f8aa:	80 81       	ld	r24, Z
   1f8ac:	0e 94 be fa 	call	0x1f57c	; 0x1f57c <parse_hex_input>
   1f8b0:	1f 5f       	subi	r17, 0xFF	; 255
   1f8b2:	80 91 b5 01 	lds	r24, 0x01B5
   1f8b6:	21 2f       	mov	r18, r17
   1f8b8:	30 e0       	ldi	r19, 0x00	; 0
   1f8ba:	90 e0       	ldi	r25, 0x00	; 0
   1f8bc:	04 96       	adiw	r24, 0x04	; 4
   1f8be:	82 17       	cp	r24, r18
   1f8c0:	93 07       	cpc	r25, r19
   1f8c2:	84 f7       	brge	.-32     	; 0x1f8a4 <main+0x5e>
   1f8c4:	8d e0       	ldi	r24, 0x0D	; 13
   1f8c6:	91 e0       	ldi	r25, 0x01	; 1
   1f8c8:	0e 94 0f f9 	call	0x1f21e	; 0x1f21e <uart_puts>
   1f8cc:	06 c0       	rjmp	.+12     	; 0x1f8da <main+0x94>
   1f8ce:	80 91 b5 01 	lds	r24, 0x01B5
   1f8d2:	88 23       	and	r24, r24
   1f8d4:	11 f4       	brne	.+4      	; 0x1f8da <main+0x94>
   1f8d6:	10 92 1a 01 	sts	0x011A, r1
   1f8da:	80 91 1a 01 	lds	r24, 0x011A
   1f8de:	88 23       	and	r24, r24
   1f8e0:	a9 f6       	brne	.-86     	; 0x1f88c <main+0x46>
   1f8e2:	80 e1       	ldi	r24, 0x10	; 16
   1f8e4:	91 e0       	ldi	r25, 0x01	; 1
   1f8e6:	0e 94 0f f9 	call	0x1f21e	; 0x1f21e <uart_puts>
   1f8ea:	8f ef       	ldi	r24, 0xFF	; 255
   1f8ec:	98 e0       	ldi	r25, 0x08	; 8
   1f8ee:	ad e3       	ldi	r26, 0x3D	; 61
   1f8f0:	81 50       	subi	r24, 0x01	; 1
   1f8f2:	90 40       	sbci	r25, 0x00	; 0
   1f8f4:	a0 40       	sbci	r26, 0x00	; 0
   1f8f6:	e1 f7       	brne	.-8      	; 0x1f8f0 <main+0xaa>
   1f8f8:	00 c0       	rjmp	.+0      	; 0x1f8fa <main+0xb4>
   1f8fa:	00 00       	nop
   1f8fc:	85 b7       	in	r24, 0x35	; 53
   1f8fe:	80 93 b4 01 	sts	0x01B4, r24
   1f902:	98 2f       	mov	r25, r24
   1f904:	91 60       	ori	r25, 0x01	; 1
   1f906:	95 bf       	out	0x35, r25	; 53
   1f908:	8d 7f       	andi	r24, 0xFD	; 253
   1f90a:	85 bf       	out	0x35, r24	; 53
   1f90c:	e0 e0       	ldi	r30, 0x00	; 0
   1f90e:	f0 e0       	ldi	r31, 0x00	; 0
   1f910:	09 95       	icall
   1f912:	80 e0       	ldi	r24, 0x00	; 0
   1f914:	90 e0       	ldi	r25, 0x00	; 0
   1f916:	1f 91       	pop	r17
   1f918:	08 95       	ret

0001f91a <memset>:
   1f91a:	dc 01       	movw	r26, r24
   1f91c:	01 c0       	rjmp	.+2      	; 0x1f920 <memset+0x6>
   1f91e:	6d 93       	st	X+, r22
   1f920:	41 50       	subi	r20, 0x01	; 1
   1f922:	50 40       	sbci	r21, 0x00	; 0
   1f924:	e0 f7       	brcc	.-8      	; 0x1f91e <memset+0x4>
   1f926:	08 95       	ret

0001f928 <_exit>:
   1f928:	f8 94       	cli

0001f92a <__stop_program>:
   1f92a:	ff cf       	rjmp	.-2      	; 0x1f92a <__stop_program>
